; Function Attrs: mustprogress nofree norecurse nosync nounwind memory(read, argmem: readwrite, inaccessiblemem: none) uwtable
define void @_ZN12MeshDocument16setCurrentRasterEi(ptr noundef nonnull align 8 dereferenceable(192) %0, i32 noundef %1) local_unnamed_addr #14 align 2 {
  %3 = icmp slt i32 %1, 0
  br i1 %3, label %_ZN12MeshDocument9getRasterEj.exit, label %4

4:                                                ; preds = %2
  %5 = getelementptr inbounds i8, ptr %0, i64 104
  br label %6

6:                                                ; preds = %7, %4
  %.sroa.06.0.in.i = phi ptr [ %5, %4 ], [ %.sroa.06.0.i, %7 ]
  %.sroa.06.0.i = load ptr, ptr %.sroa.06.0.in.i, align 8
  %.not.i = icmp eq ptr %.sroa.06.0.i, %5
  br i1 %.not.i, label %_ZN12MeshDocument9getRasterEj.exit, label %7

7:                                                ; preds = %6
  %8 = getelementptr inbounds i8, ptr %.sroa.06.0.i, i64 172
  %9 = load i32, ptr %8, align 4
  %10 = icmp eq i32 %9, %1
  br i1 %10, label %.split.loop.exit9.i, label %6

.split.loop.exit9.i:                              ; preds = %7
  %11 = getelementptr inbounds i8, ptr %.sroa.06.0.i, i64 16
  br label %_ZN12MeshDocument9getRasterEj.exit

_ZN12MeshDocument9getRasterEj.exit:               ; preds = %6, %.split.loop.exit9.i, %2
  %.0.i.sink = phi ptr [ null, %2 ], [ %11, %.split.loop.exit9.i ], [ null, %6 ]
  %12 = getelementptr inbounds i8, ptr %0, i64 184
  store ptr %.0.i.sink, ptr %12, align 8
  ret void
}